target datalayout = "e-m:e-p270:32:32-p271:32:32-p272:64:64-i64:64-i128:128-f80:128-n8:16:32:64-S128"
target triple = "x86_64-pc-linux-gnu"

%"class.icu_77::LocalMemory" = type { %"class.icu_77::LocalPointerBase" }
%"class.icu_77::LocalPointerBase" = type { ptr }
%"class.icu_77::RuleBasedCollator" = type <{ %"class.icu_77::Collator", ptr, ptr, ptr, ptr, %"class.icu_77::Locale", i32, i8, [3 x i8] }>
%"class.icu_77::Collator" = type { %"class.icu_77::UObject" }
%"class.icu_77::UObject" = type { ptr }
%"class.icu_77::Locale" = type <{ %"class.icu_77::UObject", [12 x i8], [6 x i8], [4 x i8], [2 x i8], i32, [4 x i8], ptr, [157 x i8], [3 x i8], ptr, i8, [7 x i8] }>
%"struct.icu_77::CollationTailoring" = type { %"class.icu_77::SharedObject", ptr, ptr, %"class.icu_77::UnicodeString", %"class.icu_77::Locale", [4 x i8], ptr, ptr, ptr, ptr, ptr, ptr, ptr, %"struct.icu_77::UInitOnce" }
%"class.icu_77::SharedObject" = type { %"class.icu_77::UObject", i32, %"struct.std::atomic", ptr }
%"struct.std::atomic" = type { %"struct.std::__atomic_base" }
%"struct.std::__atomic_base" = type { i32 }
%"class.icu_77::UnicodeString" = type { %"class.icu_77::Replaceable", %"union.icu_77::UnicodeString::StackBufferOrFields" }
%"class.icu_77::Replaceable" = type { %"class.icu_77::UObject" }
%"union.icu_77::UnicodeString::StackBufferOrFields" = type { %struct.anon.0, [32 x i8] }
%struct.anon.0 = type { i16, i32, i32, ptr }
%"struct.icu_77::UInitOnce" = type { %"struct.std::atomic", i32 }

; Function Attrs: mustprogress uwtable
define noundef i32 @_ZN6icu_7719CollationDataWriter14writeTailoringERKNS_18CollationTailoringERKNS_17CollationSettingsEPiPhiR10UErrorCode(ptr noundef nonnull align 8 dereferenceable(400) %0, ptr noundef nonnull align 8 dereferenceable(852) %1, ptr noundef %2, ptr noundef %3, i32 noundef %4, ptr noundef nonnull align 4 dereferenceable(4) %5) #0 align 2 {
  %7 = alloca ptr, align 8
  %8 = alloca ptr, align 8
  %9 = alloca ptr, align 8
  %10 = alloca ptr, align 8
  %11 = alloca i32, align 4
  %12 = alloca ptr, align 8
  store ptr %0, ptr %7, align 8, !tbaa !33
  store ptr %1, ptr %8, align 8, !tbaa !34
  store ptr %2, ptr %9, align 8, !tbaa !8
  store ptr %3, ptr %10, align 8, !tbaa !17
  store i32 %4, ptr %11, align 4, !tbaa !13
  store ptr %5, ptr %12, align 8, !tbaa !10
  %13 = load ptr, ptr %7, align 8, !tbaa !33
  %14 = getelementptr inbounds nuw %"struct.icu_77::CollationTailoring", ptr %13, i32 0, i32 5
  %15 = getelementptr inbounds [4 x i8], ptr %14, i64 0, i64 0
  %16 = load ptr, ptr %7, align 8, !tbaa !33
  %17 = getelementptr inbounds nuw %"struct.icu_77::CollationTailoring", ptr %16, i32 0, i32 1
  %18 = load ptr, ptr %17, align 8, !tbaa !35
  %19 = load ptr, ptr %8, align 8, !tbaa !34
  %20 = load ptr, ptr %9, align 8, !tbaa !8
  %21 = load ptr, ptr %10, align 8, !tbaa !17
  %22 = load i32, ptr %11, align 4, !tbaa !13
  %23 = load ptr, ptr %12, align 8, !tbaa !10
  %24 = call noundef i32 @_ZN6icu_7719CollationDataWriter5writeEaPKhRKNS_13CollationDataERKNS_17CollationSettingsEPKviPiPhiR10UErrorCode(i8 noundef signext 0, ptr noundef %15, ptr noundef nonnull align 8 dereferenceable(140) %18, ptr noundef nonnull align 8 dereferenceable(852) %19, ptr noundef null, i32 noundef 0, ptr noundef %20, ptr noundef %21, i32 noundef %22, ptr noundef nonnull align 4 dereferenceable(4) %23)
  ret i32 %24
}

; Function Attrs: mustprogress nounwind uwtable
define linkonce_odr void @_ZN6icu_7716LocalPointerBaseIhED2Ev(ptr noundef nonnull align 8 dereferenceable(8) %0) unnamed_addr #4 comdat align 2 {
  %2 = alloca ptr, align 8
  store ptr %0, ptr %2, align 8, !tbaa !19
  ret void
}

; Function Attrs: mustprogress nounwind uwtable
define linkonce_odr void @_ZN6icu_7716LocalPointerBaseIhEC2EPh(ptr noundef nonnull align 8 dereferenceable(8) %0, ptr noundef %1) unnamed_addr #4 comdat align 2 {
  %3 = alloca ptr, align 8
  %4 = alloca ptr, align 8
  store ptr %0, ptr %3, align 8, !tbaa !19
  store ptr %1, ptr %4, align 8, !tbaa !17
  %5 = load ptr, ptr %3, align 8
  %6 = getelementptr inbounds nuw %"class.icu_77::LocalPointerBase", ptr %5, i32 0, i32 0
  %7 = load ptr, ptr %4, align 8, !tbaa !17
  store ptr %7, ptr %6, align 8, !tbaa !21
  ret void
}

; Function Attrs: mustprogress nounwind uwtable
define linkonce_odr noundef ptr @_ZN6icu_7716LocalPointerBaseIhE6orphanEv(ptr noundef nonnull align 8 dereferenceable(8) %0) #4 comdat align 2 {
  %2 = alloca ptr, align 8
  %3 = alloca ptr, align 8
  store ptr %0, ptr %2, align 8, !tbaa !19
  %4 = load ptr, ptr %2, align 8
  call void @llvm.lifetime.start.p0(i64 8, ptr %3) #11
  %5 = getelementptr inbounds nuw %"class.icu_77::LocalPointerBase", ptr %4, i32 0, i32 0
  %6 = load ptr, ptr %5, align 8, !tbaa !21
  store ptr %6, ptr %3, align 8, !tbaa !17
  %7 = getelementptr inbounds nuw %"class.icu_77::LocalPointerBase", ptr %4, i32 0, i32 0
  store ptr null, ptr %7, align 8, !tbaa !21
  %8 = load ptr, ptr %3, align 8, !tbaa !17
  call void @llvm.lifetime.end.p0(i64 8, ptr %3) #11
  ret ptr %8
}

; Function Attrs: inlinehint mustprogress uwtable
define linkonce_odr noundef ptr @_ZN6icu_7711LocalMemoryIhE22allocateInsteadAndCopyEii(ptr noundef nonnull align 8 dereferenceable(8) %0, i32 noundef %1, i32 noundef %2) #5 comdat align 2 {
  %4 = alloca ptr, align 8
  %5 = alloca ptr, align 8
  %6 = alloca i32, align 4
  %7 = alloca i32, align 4
  %8 = alloca ptr, align 8
  store ptr %0, ptr %5, align 8, !tbaa !15
  store i32 %1, ptr %6, align 4, !tbaa !13
  store i32 %2, ptr %7, align 4, !tbaa !13
  %9 = load ptr, ptr %5, align 8
  %10 = load i32, ptr %6, align 4, !tbaa !13
  %11 = icmp sgt i32 %10, 0
  br i1 %11, label %12, label %45

12:                                               ; preds = %3
  call void @llvm.lifetime.start.p0(i64 8, ptr %8) #11
  %13 = load i32, ptr %6, align 4, !tbaa !13
  %14 = sext i32 %13 to i64
  %15 = mul i64 %14, 1
  %16 = call noalias ptr @uprv_malloc_77(i64 noundef %15) #12
  store ptr %16, ptr %8, align 8, !tbaa !17
  %17 = load ptr, ptr %8, align 8, !tbaa !17
  %18 = icmp ne ptr %17, null
  br i1 %18, label %19, label %43

19:                                               ; preds = %12
  %20 = load i32, ptr %7, align 4, !tbaa !13
  %21 = icmp sgt i32 %20, 0
  br i1 %21, label %22, label %38

22:                                               ; preds = %19
  %23 = load i32, ptr %7, align 4, !tbaa !13
  %24 = load i32, ptr %6, align 4, !tbaa !13
  %25 = icmp sgt i32 %23, %24
  br i1 %25, label %26, label %28

26:                                               ; preds = %22
  %27 = load i32, ptr %6, align 4, !tbaa !13
  store i32 %27, ptr %7, align 4, !tbaa !13
  br label %28

28:                                               ; preds = %26, %22
  br label %29

29:                                               ; preds = %28
  %30 = load ptr, ptr %8, align 8, !tbaa !17
  %31 = getelementptr inbounds nuw %"class.icu_77::LocalPointerBase", ptr %9, i32 0, i32 0
  %32 = load ptr, ptr %31, align 8, !tbaa !21
  %33 = load i32, ptr %7, align 4, !tbaa !13
  %34 = sext i32 %33 to i64
  %35 = mul i64 %34, 1
  call void @llvm.memcpy.p0.p0.i64(ptr align 1 %30, ptr align 1 %32, i64 %35, i1 false)
  br label %36

36:                                               ; preds = %29
  br label %37

37:                                               ; preds = %36
  br label %38

38:                                               ; preds = %37, %19
  %39 = getelementptr inbounds nuw %"class.icu_77::LocalPointerBase", ptr %9, i32 0, i32 0
  %40 = load ptr, ptr %39, align 8, !tbaa !21
  call void @uprv_free_77(ptr noundef %40)
  %41 = load ptr, ptr %8, align 8, !tbaa !17
  %42 = getelementptr inbounds nuw %"class.icu_77::LocalPointerBase", ptr %9, i32 0, i32 0
  store ptr %41, ptr %42, align 8, !tbaa !21
  br label %43

43:                                               ; preds = %38, %12
  %44 = load ptr, ptr %8, align 8, !tbaa !17
  store ptr %44, ptr %4, align 8
  call void @llvm.lifetime.end.p0(i64 8, ptr %8) #11
  br label %46

45:                                               ; preds = %3
  store ptr null, ptr %4, align 8
  br label %46

46:                                               ; preds = %45, %43
  %47 = load ptr, ptr %4, align 8
  ret ptr %47
}

; Function Attrs: mustprogress uwtable
define noundef i32 @_ZNK6icu_7717RuleBasedCollator11cloneBinaryEPhiR10UErrorCode(ptr noundef nonnull align 8 dereferenceable(272) %0, ptr noundef %1, i32 noundef %2, ptr noundef nonnull align 4 dereferenceable(4) %3) #0 align 2 {
  %5 = alloca ptr, align 8
  %6 = alloca ptr, align 8
  %7 = alloca i32, align 4
  %8 = alloca ptr, align 8
  %9 = alloca [20 x i32], align 16
  store ptr %0, ptr %5, align 8, !tbaa !3
  store ptr %1, ptr %6, align 8, !tbaa !17
  store i32 %2, ptr %7, align 4, !tbaa !13
  store ptr %3, ptr %8, align 8, !tbaa !10
  %10 = load ptr, ptr %5, align 8
  call void @llvm.lifetime.start.p0(i64 80, ptr %9) #11
  %11 = getelementptr inbounds nuw %"class.icu_77::RuleBasedCollator", ptr %10, i32 0, i32 3
  %12 = load ptr, ptr %11, align 8, !tbaa !23
  %13 = getelementptr inbounds nuw %"class.icu_77::RuleBasedCollator", ptr %10, i32 0, i32 2
  %14 = load ptr, ptr %13, align 8, !tbaa !32
  %15 = getelementptr inbounds [20 x i32], ptr %9, i64 0, i64 0
  %16 = load ptr, ptr %6, align 8, !tbaa !17
  %17 = load i32, ptr %7, align 4, !tbaa !13
  %18 = load ptr, ptr %8, align 8, !tbaa !10
  %19 = call noundef i32 @_ZN6icu_7719CollationDataWriter14writeTailoringERKNS_18CollationTailoringERKNS_17CollationSettingsEPiPhiR10UErrorCode(ptr noundef nonnull align 8 dereferenceable(400) %12, ptr noundef nonnull align 8 dereferenceable(852) %14, ptr noundef %15, ptr noundef %16, i32 noundef %17, ptr noundef nonnull align 4 dereferenceable(4) %18)
  call void @llvm.lifetime.end.p0(i64 80, ptr %9) #11
  ret i32 %19
}

; Function Attrs: mustprogress nounwind uwtable
define linkonce_odr noundef ptr @_ZNK6icu_7716LocalPointerBaseIhE8getAliasEv(ptr noundef nonnull align 8 dereferenceable(8) %0) #4 comdat align 2 {
  %2 = alloca ptr, align 8
  store ptr %0, ptr %2, align 8, !tbaa !19
  %3 = load ptr, ptr %2, align 8
  %4 = getelementptr inbounds nuw %"class.icu_77::LocalPointerBase", ptr %3, i32 0, i32 0
  %5 = load ptr, ptr %4, align 8, !tbaa !21
  ret ptr %5
}

; Function Attrs: mustprogress nounwind uwtable
define linkonce_odr void @_ZN6icu_7711LocalMemoryIhED2Ev(ptr noundef nonnull align 8 dereferenceable(8) %0) unnamed_addr #4 comdat align 2 personality ptr @__gxx_personality_v0 {
  %2 = alloca ptr, align 8
  store ptr %0, ptr %2, align 8, !tbaa !15
  %3 = load ptr, ptr %2, align 8
  %4 = getelementptr inbounds nuw %"class.icu_77::LocalPointerBase", ptr %3, i32 0, i32 0
  %5 = load ptr, ptr %4, align 8, !tbaa !21
  invoke void @uprv_free_77(ptr noundef %5)
          to label %6 unwind label %7

6:                                                ; preds = %1
  call void @_ZN6icu_7716LocalPointerBaseIhED2Ev(ptr noundef nonnull align 8 dereferenceable(8) %3) #11
  ret void

7:                                                ; preds = %1
  %8 = landingpad { ptr, i32 }
          catch ptr null
  %9 = extractvalue { ptr, i32 } %8, 0
  call void @__clang_call_terminate(ptr %9) #13
  unreachable
}

; Function Attrs: mustprogress nounwind uwtable
define linkonce_odr noundef signext i8 @_ZNK6icu_7716LocalPointerBaseIhE6isNullEv(ptr noundef nonnull align 8 dereferenceable(8) %0) #4 comdat align 2 {
  %2 = alloca ptr, align 8
  store ptr %0, ptr %2, align 8, !tbaa !19
  %3 = load ptr, ptr %2, align 8
  %4 = getelementptr inbounds nuw %"class.icu_77::LocalPointerBase", ptr %3, i32 0, i32 0
  %5 = load ptr, ptr %4, align 8, !tbaa !21
  %6 = icmp eq ptr %5, null
  %7 = zext i1 %6 to i8
  ret i8 %7
}

; Function Attrs: mustprogress uwtable
define linkonce_odr void @_ZN6icu_7711LocalMemoryIhEC2EPh(ptr noundef nonnull align 8 dereferenceable(8) %0, ptr noundef %1) unnamed_addr #0 comdat align 2 {
  %3 = alloca ptr, align 8
  %4 = alloca ptr, align 8
  store ptr %0, ptr %3, align 8, !tbaa !15
  store ptr %1, ptr %4, align 8, !tbaa !17
  %5 = load ptr, ptr %3, align 8
  %6 = load ptr, ptr %4, align 8, !tbaa !17
  call void @_ZN6icu_7716LocalPointerBaseIhEC2EPh(ptr noundef nonnull align 8 dereferenceable(8) %5, ptr noundef %6)
  ret void
}

; Function Attrs: inlinehint mustprogress nounwind uwtable
define internal noundef signext i8 @_ZL9U_FAILURE10UErrorCode(i32 noundef %0) #1 {
  %2 = alloca i32, align 4
  store i32 %0, ptr %2, align 4, !tbaa !11
  %3 = load i32, ptr %2, align 4, !tbaa !11
  %4 = icmp sgt i32 %3, 0
  %5 = zext i1 %4 to i8
  ret i8 %5
}

; Function Attrs: mustprogress uwtable
define noundef ptr @_ZNK6icu_7717RuleBasedCollator13cloneRuleDataERiR10UErrorCode(ptr noundef nonnull align 8 dereferenceable(272) %0, ptr noundef nonnull align 4 dereferenceable(4) %1, ptr noundef nonnull align 4 dereferenceable(4) %2) #0 align 2 personality ptr @__gxx_personality_v0 {
  %4 = alloca ptr, align 8
  %5 = alloca ptr, align 8
  %6 = alloca ptr, align 8
  %7 = alloca ptr, align 8
  %8 = alloca %"class.icu_77::LocalMemory", align 8
  %9 = alloca ptr, align 8
  %10 = alloca i32, align 4
  %11 = alloca i32, align 4
  store ptr %0, ptr %5, align 8, !tbaa !3
  store ptr %1, ptr %6, align 8, !tbaa !8
  store ptr %2, ptr %7, align 8, !tbaa !10
  %12 = load ptr, ptr %5, align 8
  %13 = load ptr, ptr %7, align 8, !tbaa !10
  %14 = load i32, ptr %13, align 4, !tbaa !11
  %15 = call noundef signext i8 @_ZL9U_FAILURE10UErrorCode(i32 noundef %14)
  %16 = icmp ne i8 %15, 0
  br i1 %16, label %17, label %18

17:                                               ; preds = %3
  store ptr null, ptr %4, align 8
  br label %68

18:                                               ; preds = %3
  call void @llvm.lifetime.start.p0(i64 8, ptr %8) #11
  %19 = call noalias ptr @uprv_malloc_77(i64 noundef 20000) #12
  call void @_ZN6icu_7711LocalMemoryIhEC2EPh(ptr noundef nonnull align 8 dereferenceable(8) %8, ptr noundef %19)
  %20 = invoke noundef signext i8 @_ZNK6icu_7716LocalPointerBaseIhE6isNullEv(ptr noundef nonnull align 8 dereferenceable(8) %8)
          to label %21 unwind label %25

21:                                               ; preds = %18
  %22 = icmp ne i8 %20, 0
  br i1 %22, label %23, label %29

23:                                               ; preds = %21
  %24 = load ptr, ptr %7, align 8, !tbaa !10
  store i32 7, ptr %24, align 4, !tbaa !11
  store ptr null, ptr %4, align 8
  store i32 1, ptr %11, align 4
  br label %67

25:                                               ; preds = %64, %57, %50, %47, %39, %31, %29, %18
  %26 = landingpad { ptr, i32 }
          cleanup
  %27 = extractvalue { ptr, i32 } %26, 0
  store ptr %27, ptr %9, align 8
  %28 = extractvalue { ptr, i32 } %26, 1
  store i32 %28, ptr %10, align 4
  call void @_ZN6icu_7711LocalMemoryIhED2Ev(ptr noundef nonnull align 8 dereferenceable(8) %8) #11
  call void @llvm.lifetime.end.p0(i64 8, ptr %8) #11
  br label %70

29:                                               ; preds = %21
  %30 = invoke noundef ptr @_ZNK6icu_7716LocalPointerBaseIhE8getAliasEv(ptr noundef nonnull align 8 dereferenceable(8) %8)
          to label %31 unwind label %25

31:                                               ; preds = %29
  %32 = load ptr, ptr %7, align 8, !tbaa !10
  %33 = invoke noundef i32 @_ZNK6icu_7717RuleBasedCollator11cloneBinaryEPhiR10UErrorCode(ptr noundef nonnull align 8 dereferenceable(272) %12, ptr noundef %30, i32 noundef 20000, ptr noundef nonnull align 4 dereferenceable(4) %32)
          to label %34 unwind label %25

34:                                               ; preds = %31
  %35 = load ptr, ptr %6, align 8, !tbaa !8
  store i32 %33, ptr %35, align 4, !tbaa !13
  %36 = load ptr, ptr %7, align 8, !tbaa !10
  %37 = load i32, ptr %36, align 4, !tbaa !11
  %38 = icmp eq i32 %37, 15
  br i1 %38, label %39, label %57

39:                                               ; preds = %34
  %40 = load ptr, ptr %6, align 8, !tbaa !8
  %41 = load i32, ptr %40, align 4, !tbaa !13
  %42 = invoke noundef ptr @_ZN6icu_7711LocalMemoryIhE22allocateInsteadAndCopyEii(ptr noundef nonnull align 8 dereferenceable(8) %8, i32 noundef %41, i32 noundef 0)
          to label %43 unwind label %25

43:                                               ; preds = %39
  %44 = icmp eq ptr %42, null
  br i1 %44, label %45, label %47

45:                                               ; preds = %43
  %46 = load ptr, ptr %7, align 8, !tbaa !10
  store i32 7, ptr %46, align 4, !tbaa !11
  store ptr null, ptr %4, align 8
  store i32 1, ptr %11, align 4
  br label %67

47:                                               ; preds = %43
  %48 = load ptr, ptr %7, align 8, !tbaa !10
  store i32 0, ptr %48, align 4, !tbaa !11
  %49 = invoke noundef ptr @_ZNK6icu_7716LocalPointerBaseIhE8getAliasEv(ptr noundef nonnull align 8 dereferenceable(8) %8)
          to label %50 unwind label %25

50:                                               ; preds = %47
  %51 = load ptr, ptr %6, align 8, !tbaa !8
  %52 = load i32, ptr %51, align 4, !tbaa !13
  %53 = load ptr, ptr %7, align 8, !tbaa !10
  %54 = invoke noundef i32 @_ZNK6icu_7717RuleBasedCollator11cloneBinaryEPhiR10UErrorCode(ptr noundef nonnull align 8 dereferenceable(272) %12, ptr noundef %49, i32 noundef %52, ptr noundef nonnull align 4 dereferenceable(4) %53)
          to label %55 unwind label %25

55:                                               ; preds = %50
  %56 = load ptr, ptr %6, align 8, !tbaa !8
  store i32 %54, ptr %56, align 4, !tbaa !13
  br label %57

57:                                               ; preds = %55, %34
  %58 = load ptr, ptr %7, align 8, !tbaa !10
  %59 = load i32, ptr %58, align 4, !tbaa !11
  %60 = invoke noundef signext i8 @_ZL9U_FAILURE10UErrorCode(i32 noundef %59)
          to label %61 unwind label %25

61:                                               ; preds = %57
  %62 = icmp ne i8 %60, 0
  br i1 %62, label %63, label %64

63:                                               ; preds = %61
  store ptr null, ptr %4, align 8
  store i32 1, ptr %11, align 4
  br label %67

64:                                               ; preds = %61
  %65 = invoke noundef ptr @_ZN6icu_7716LocalPointerBaseIhE6orphanEv(ptr noundef nonnull align 8 dereferenceable(8) %8)
          to label %66 unwind label %25

66:                                               ; preds = %64
  store ptr %65, ptr %4, align 8
  store i32 1, ptr %11, align 4
  br label %67

67:                                               ; preds = %66, %63, %45, %23
  call void @_ZN6icu_7711LocalMemoryIhED2Ev(ptr noundef nonnull align 8 dereferenceable(8) %8) #11
  call void @llvm.lifetime.end.p0(i64 8, ptr %8) #11
  br label %68

68:                                               ; preds = %67, %17
  %69 = load ptr, ptr %4, align 8
  ret ptr %69

70:                                               ; preds = %25
  %71 = load ptr, ptr %9, align 8
  %72 = load i32, ptr %10, align 4
  %73 = insertvalue { ptr, i32 } poison, ptr %71, 0
  %74 = insertvalue { ptr, i32 } %73, i32 %72, 1
  resume { ptr, i32 } %74
}