; Function Attrs: mustprogress uwtable
define noundef ptr @_ZNK6icu_7717RuleBasedCollator13cloneRuleDataERiR10UErrorCode(ptr noundef nonnull readonly align 8 captures(none) dereferenceable(272) %0, ptr noundef nonnull align 4 captures(none) dereferenceable(4) %1, ptr noundef nonnull align 4 dereferenceable(4) %2) local_unnamed_addr #0 align 2 personality ptr @__gxx_personality_v0 {
  %4 = alloca [20 x i32], align 16
  %5 = alloca [20 x i32], align 16
  %6 = load i32, ptr %2, align 4, !tbaa !3
  %7 = icmp slt i32 %6, 1
  br i1 %7, label %8, label %_ZN6icu_7711LocalMemoryIhED2Ev.exit20

8:                                                ; preds = %3
  %9 = tail call noalias dereferenceable_or_null(20000) ptr @uprv_malloc_77(i64 noundef 20000) #10
  %.not = icmp eq ptr %9, null
  br i1 %.not, label %10, label %16

10:                                               ; preds = %8
  store i32 7, ptr %2, align 4, !tbaa !3
  br label %46

11:                                               ; preds = %_ZN6icu_7711LocalMemoryIhE22allocateInsteadAndCopyEii.exit, %33, %30, %16
  %.sroa.0.0 = phi ptr [ %32, %_ZN6icu_7711LocalMemoryIhE22allocateInsteadAndCopyEii.exit ], [ %9, %33 ], [ %9, %30 ], [ %9, %16 ]
  %12 = landingpad { ptr, i32 }
          cleanup
  invoke void @uprv_free_77(ptr noundef nonnull %.sroa.0.0)
          to label %_ZN6icu_7711LocalMemoryIhED2Ev.exit unwind label %13

13:                                               ; preds = %11
  %14 = landingpad { ptr, i32 }
          catch ptr null
  %15 = extractvalue { ptr, i32 } %14, 0
  tail call void @__clang_call_terminate(ptr %15) #11
  unreachable

_ZN6icu_7711LocalMemoryIhED2Ev.exit:              ; preds = %11
  resume { ptr, i32 } %12

16:                                               ; preds = %8
  call void @llvm.lifetime.start.p0(i64 80, ptr nonnull %5) #12
  %17 = getelementptr inbounds nuw i8, ptr %0, i64 24
  %18 = load ptr, ptr %17, align 8, !tbaa !7
  %19 = getelementptr inbounds nuw i8, ptr %0, i64 16
  %20 = load ptr, ptr %19, align 8, !tbaa !19
  %21 = getelementptr inbounds nuw i8, ptr %18, i64 328
  %22 = getelementptr inbounds nuw i8, ptr %18, i64 24
  %23 = load ptr, ptr %22, align 8, !tbaa !20
  %24 = invoke noundef i32 @_ZN6icu_7719CollationDataWriter5writeEaPKhRKNS_13CollationDataERKNS_17CollationSettingsEPKviPiPhiR10UErrorCode(i8 noundef signext 0, ptr noundef nonnull readonly %21, ptr noundef nonnull align 8 dereferenceable(140) %23, ptr noundef nonnull readonly align 8 dereferenceable(852) %20, ptr noundef null, i32 noundef 0, ptr noundef nonnull %5, ptr noundef nonnull %9, i32 noundef 20000, ptr noundef nonnull align 4 dereferenceable(4) %2)
          to label %25 unwind label %11

25:                                               ; preds = %16
  call void @llvm.lifetime.end.p0(i64 80, ptr nonnull %5) #12
  store i32 %24, ptr %1, align 4, !tbaa !35
  %26 = load i32, ptr %2, align 4, !tbaa !3
  %27 = icmp eq i32 %26, 15
  br i1 %27, label %28, label %43

28:                                               ; preds = %25
  %29 = icmp sgt i32 %24, 0
  br i1 %29, label %30, label %34

30:                                               ; preds = %28
  %31 = zext nneg i32 %24 to i64
  %32 = invoke noalias ptr @uprv_malloc_77(i64 noundef %31) #10
          to label %.noexc unwind label %11

.noexc:                                           ; preds = %30
  %.not.i = icmp eq ptr %32, null
  br i1 %.not.i, label %34, label %33

33:                                               ; preds = %.noexc
  invoke void @uprv_free_77(ptr noundef nonnull %9)
          to label %_ZN6icu_7711LocalMemoryIhE22allocateInsteadAndCopyEii.exit unwind label %11

34:                                               ; preds = %.noexc, %28
  store i32 7, ptr %2, align 4, !tbaa !3
  br label %46

_ZN6icu_7711LocalMemoryIhE22allocateInsteadAndCopyEii.exit: ; preds = %33
  store i32 0, ptr %2, align 4, !tbaa !3
  %35 = load i32, ptr %1, align 4, !tbaa !35
  call void @llvm.lifetime.start.p0(i64 80, ptr nonnull %4) #12
  %36 = load ptr, ptr %17, align 8, !tbaa !7
  %37 = load ptr, ptr %19, align 8, !tbaa !19
  %38 = getelementptr inbounds nuw i8, ptr %36, i64 328
  %39 = getelementptr inbounds nuw i8, ptr %36, i64 24
  %40 = load ptr, ptr %39, align 8, !tbaa !20
  %41 = invoke noundef i32 @_ZN6icu_7719CollationDataWriter5writeEaPKhRKNS_13CollationDataERKNS_17CollationSettingsEPKviPiPhiR10UErrorCode(i8 noundef signext 0, ptr noundef nonnull readonly %38, ptr noundef nonnull align 8 dereferenceable(140) %40, ptr noundef nonnull readonly align 8 dereferenceable(852) %37, ptr noundef null, i32 noundef 0, ptr noundef nonnull %4, ptr noundef nonnull %32, i32 noundef %35, ptr noundef nonnull align 4 dereferenceable(4) %2)
          to label %42 unwind label %11

42:                                               ; preds = %_ZN6icu_7711LocalMemoryIhE22allocateInsteadAndCopyEii.exit
  call void @llvm.lifetime.end.p0(i64 80, ptr nonnull %4) #12
  store i32 %41, ptr %1, align 4, !tbaa !35
  %.pre = load i32, ptr %2, align 4, !tbaa !3
  br label %43

43:                                               ; preds = %42, %25
  %44 = phi i32 [ %.pre, %42 ], [ %26, %25 ]
  %.sroa.0.2 = phi ptr [ %32, %42 ], [ %9, %25 ]
  %45 = icmp slt i32 %44, 1
  %spec.select = select i1 %45, ptr null, ptr %.sroa.0.2
  %spec.select29 = select i1 %45, ptr %.sroa.0.2, ptr null
  br label %46

46:                                               ; preds = %43, %34, %10
  %.sroa.0.1 = phi ptr [ %9, %34 ], [ null, %10 ], [ %spec.select, %43 ]
  %.1 = phi ptr [ null, %34 ], [ null, %10 ], [ %spec.select29, %43 ]
  invoke void @uprv_free_77(ptr noundef %.sroa.0.1)
          to label %_ZN6icu_7711LocalMemoryIhED2Ev.exit20 unwind label %47

47:                                               ; preds = %46
  %48 = landingpad { ptr, i32 }
          catch ptr null
  %49 = extractvalue { ptr, i32 } %48, 0
  tail call void @__clang_call_terminate(ptr %49) #11
  unreachable

_ZN6icu_7711LocalMemoryIhED2Ev.exit20:            ; preds = %46, %3
  %.0 = phi ptr [ null, %3 ], [ %.1, %46 ]
  ret ptr %.0
}